; Function Attrs: mustprogress uwtable
define noundef i32 @_ZN3zmq20stream_engine_base_t4readEPvm(ptr nocapture noundef nonnull readonly align 8 dereferenceable(1689) %this, ptr noundef %data_, i64 noundef %size_) unnamed_addr #0 align 2 {
entry:
  %_s = getelementptr inbounds i8, ptr %this, i64 1576
  %0 = load i32, ptr %_s, align 8
  %call = tail call noundef i32 @_ZN3zmq8tcp_readEiPvm(i32 noundef %0, ptr noundef %data_, i64 noundef %size_)
  %cmp = icmp eq i32 %call, 0
  br i1 %cmp, label %if.then, label %return

if.then:                                          ; preds = %entry
  %call2 = tail call ptr @__errno_location() #20
  store i32 32, ptr %call2, align 4
  br label %return

return:                                           ; preds = %entry, %if.then
  %retval.0 = phi i32 [ -1, %if.then ], [ %call, %entry ]
  ret i32 %retval.0
}